Archive member included to satisfy reference by file (symbol)

bsp/lib/libavrbsp.a(start.o)  (_start)
bsp/lib/libavrbsp.a(adc.o)    obj/main.o (adc_init)
bsp/lib/libavrbsp.a(gpio.o)   obj/main.o (gpio_init)
bsp/lib/libavrbsp.a(servo.o)  obj/main.o (servo_init)
bsp/lib/libavrbsp.a(timer.o)  bsp/lib/libavrbsp.a(servo.o) (timer_init)

Memory Configuration

Name             Origin             Length             Attributes
FLASH            0x0000000000000000 0x0000000000008000 xr
SRAM             0x0000000000800100 0x0000000000000800 rw !x
*default*        0x0000000000000000 0xffffffffffffffff

Linker script and memory map

Address of section .data set to 0x800100
                0x00000000008008ff                PROVIDE (__stack_top, ((ORIGIN (SRAM) + LENGTH (SRAM)) - 0x1))

.text           0x0000000000000000      0x588
 *(.vectors)
 .vectors       0x0000000000000000       0x68 bsp/lib/libavrbsp.a(start.o)
                0x0000000000000068                . = ALIGN (0x2)
 *(.text)
 .text          0x0000000000000068       0x44 obj/main.o
                0x0000000000000068                __vector_ADC_ISR
 .text          0x00000000000000ac       0x4c bsp/lib/libavrbsp.a(start.o)
                0x00000000000000ac                _start
                0x00000000000000c4                __copy_data
                0x00000000000000de                __clear_bss
                0x00000000000000f4                __vector_TIMER0_OVF_ISR
                0x00000000000000f4                __dummy_function
                0x00000000000000f4                __vector_INT1_ISR
                0x00000000000000f4                __vector_SPM_READY_ISR
                0x00000000000000f4                __vector_TIMER1_CAPT_ISR
                0x00000000000000f4                __vector_EE_READY_ISR
                0x00000000000000f4                __vector_TWI_ISR
                0x00000000000000f4                __vector_TIMER2_COMPA_ISR
                0x00000000000000f4                __vector_ANALOG_COMP_ISR
                0x00000000000000f4                __vector_INT0_ISR
                0x00000000000000f4                __vector_TIMER1_OVF_ISR
                0x00000000000000f4                __vector_USART_TX_ISR
                0x00000000000000f4                __vector_SPI_STC_ISR
                0x00000000000000f4                __vector_TIMER0_COMPA_ISR
                0x00000000000000f4                __vector_PCINT2_ISR
                0x00000000000000f4                __vector_USART_UDRE_ISR
                0x00000000000000f4                __vector_TIMER1_COMPA_ISR
                0x00000000000000f4                __vector_PCINT1_ISR
                0x00000000000000f4                __vector_WDT_ISR
                0x00000000000000f4                __vector_TIMER2_COMPB_ISR
                0x00000000000000f4                __vector_TIMER0_COMPB_ISR
                0x00000000000000f4                __vector_PCINT0_ISR
                0x00000000000000f4                __vector_USART_RX_ISR
                0x00000000000000f4                __vector_TIMER1_COMPB_ISR
                0x00000000000000f4                __vector_TIMER2_OVF_ISR
 .text          0x00000000000000f8      0x14e bsp/lib/libavrbsp.a(adc.o)
                0x00000000000000f8                adc_enable
                0x0000000000000104                adc_disable
                0x0000000000000110                adc_enable_interrupt
                0x000000000000011c                adc_disable_interrupt
                0x0000000000000128                adc_select_channel
                0x000000000000013a                adc_select_reference
                0x0000000000000154                adc_select_prescaler
                0x0000000000000166                adc_select_auto_trigger
                0x0000000000000198                adc_init
                0x00000000000001d4                adc_start_conversion
                0x00000000000001e0                adc_start_conversion_on_channel
                0x00000000000001e8                adc_check_completion
                0x00000000000001fa                adc_read_value
                0x0000000000000204                adc_enable_digital_input
                0x000000000000021e                adc_disable_digital_input
                0x0000000000000236                adc_read
 .text          0x0000000000000246      0x120 bsp/lib/libavrbsp.a(gpio.o)
                0x0000000000000246                gpio_init
                0x00000000000002ce                gpio_write
                0x0000000000000306                gpio_toggle
                0x0000000000000336                gpio_read
 .text          0x0000000000000366       0x62 bsp/lib/libavrbsp.a(servo.o)
                0x0000000000000366                servo_init
                0x00000000000003b8                servo_write
 .text          0x00000000000003c8      0x1c0 bsp/lib/libavrbsp.a(timer.o)
                0x00000000000003c8                timer_set_clock
                0x0000000000000402                timer_set_counter
                0x0000000000000420                timer_init
                0x0000000000000492                timer_set_input_compare_value
                0x00000000000004a0                timer_set_output_compare_value
                0x00000000000004d4                timer_enable_interrupt
                0x00000000000004f8                timer_config_output_compare_channel
                0x0000000000000562                timer_disable_interrupt
                0x00000000000005f2                PROVIDE (__data_load_start, LOADADDR (.data))

.trampolines    0x0000000000000588        0x0
 .trampolines   0x0000000000000588        0x0 linker stubs

.text.startup   0x0000000000000588       0x6a
 .text.startup  0x0000000000000588       0x6a obj/main.o
                0x0000000000000588                main

.data           0x0000000000800100       0x4e load address 0x00000000000005f2
                0x0000000000800100                PROVIDE (__data_start, .)
 *(.data)
 .data          0x0000000000800100        0x0 obj/main.o
 .data          0x0000000000800100        0x0 bsp/lib/libavrbsp.a(start.o)
 .data          0x0000000000800100        0x0 bsp/lib/libavrbsp.a(adc.o)
 .data          0x0000000000800100        0x0 bsp/lib/libavrbsp.a(gpio.o)
 .data          0x0000000000800100        0x0 bsp/lib/libavrbsp.a(servo.o)
 .data          0x0000000000800100        0x0 bsp/lib/libavrbsp.a(timer.o)
 *(.rodata)
 .rodata        0x0000000000800100        0x8 obj/main.o
                0x0000000000800100                builtin_led
                0x0000000000800103                SERVO
 .rodata        0x0000000000800108       0x12 bsp/lib/libavrbsp.a(gpio.o)
                0x0000000000800108                GPIO_PIN_REGS
                0x000000000080010e                GPIO_DDR_REGS
                0x0000000000800114                GPIO_PORT_REGS
 .rodata        0x000000000080011a       0x34 bsp/lib/libavrbsp.a(timer.o)
                0x0000000000800122                TIMER_WAVEFORM_MODE
                0x0000000000800124                TIMER_TIFR_REGS
                0x000000000080012a                TIMER_TIMSK_REGS
                0x0000000000800130                TIMER_OCRB_REGS
                0x0000000000800136                TIMER_OCRA_REGS
                0x000000000080013c                TIMER_TCNT_REGS
                0x0000000000800142                TIMER_TCCRB_REGS
                0x0000000000800148                TIMER_TCCRA_REGS
 *(.rodata)
 *(.rodata*)
                0x000000000080014e                PROVIDE (__data_end, .)

.bss            0x000000000080014e        0x3 load address 0x0000000000000640
                0x000000000080014e                PROVIDE (__bss_start, .)
 *(.bss)
 .bss           0x000000000080014e        0x3 obj/main.o
                0x000000000080014e                adc_ready
 .bss           0x0000000000800151        0x0 bsp/lib/libavrbsp.a(start.o)
 .bss           0x0000000000800151        0x0 bsp/lib/libavrbsp.a(adc.o)
 .bss           0x0000000000800151        0x0 bsp/lib/libavrbsp.a(gpio.o)
 .bss           0x0000000000800151        0x0 bsp/lib/libavrbsp.a(servo.o)
 .bss           0x0000000000800151        0x0 bsp/lib/libavrbsp.a(timer.o)
 *(.COMMON)
                0x0000000000800151                PROVIDE (__bss_end, .)
LOAD obj/main.o
LOAD bsp/lib/libavrbsp.a
OUTPUT(obj/app.elf elf32-avr)
LOAD linker stubs

.comment        0x0000000000000000       0x11
 .comment       0x0000000000000000       0x11 obj/main.o
                                         0x12 (size before relaxing)
 .comment       0x0000000000000011       0x12 bsp/lib/libavrbsp.a(adc.o)
 .comment       0x0000000000000011       0x12 bsp/lib/libavrbsp.a(gpio.o)
 .comment       0x0000000000000011       0x12 bsp/lib/libavrbsp.a(servo.o)
 .comment       0x0000000000000011       0x12 bsp/lib/libavrbsp.a(timer.o)
